; Function Attrs: nofree norecurse nosync nounwind memory(none) uwtable
define i32 @ossl_hmac2mdnid(i32 noundef %0) local_unnamed_addr #7 {
  br label %4

2:                                                ; preds = %4
  %3 = add nuw nsw i64 %.07, 1
  %exitcond.not = icmp eq i64 %3, 15
  br i1 %exitcond.not, label %.loopexit, label %4, !llvm.loop !95

4:                                                ; preds = %1, %2
  %.07 = phi i64 [ 0, %1 ], [ %3, %2 ]
  %5 = getelementptr inbounds nuw [15 x %struct.ossl_hmacmd_pair], ptr @ossl_hmacmd_pairs, i64 0, i64 %.07
  %6 = getelementptr inbounds nuw i8, ptr %5, i64 4
  %7 = load i32, ptr %6, align 4, !tbaa !96
  %8 = icmp eq i32 %7, %0
  br i1 %8, label %9, label %2

9:                                                ; preds = %4
  %10 = load i32, ptr %5, align 8, !tbaa !98
  br label %.loopexit

.loopexit:                                        ; preds = %2, %9
  %.06 = phi i32 [ %10, %9 ], [ 0, %2 ]
  ret i32 %.06
}